; Function Attrs: mustprogress nounwind uwtable
define hidden void @_ZN3ue223ConstructLiteralVisitorD0Ev(ptr noundef nonnull align 8 dereferenceable(152) %this) unnamed_addr #2 align 2 personality ptr @__gxx_personality_v0 {
entry:
  store ptr getelementptr inbounds ({ [46 x ptr] }, ptr @_ZTVN3ue223ConstructLiteralVisitorE, i64 0, i32 0, i64 2), ptr %this, align 8
  %repeat_stack.i = getelementptr inbounds i8, ptr %this, i64 72
  %0 = load ptr, ptr %repeat_stack.i, align 8
  %tobool.not.i.i.i.i = icmp eq ptr %0, null
  br i1 %tobool.not.i.i.i.i, label %_ZNSt5stackImSt5dequeImSaImEEED2Ev.exit.i, label %if.then.i.i.i.i

if.then.i.i.i.i:                                  ; preds = %entry
  %_M_node5.i.i6.i.i.i = getelementptr inbounds i8, ptr %this, i64 144
  %_M_node5.i.i.i.i.i = getelementptr inbounds i8, ptr %this, i64 112
  %1 = load ptr, ptr %_M_node5.i.i.i.i.i, align 8
  %2 = load ptr, ptr %_M_node5.i.i6.i.i.i, align 8
  %add.ptr.i.i.i.i = getelementptr inbounds i8, ptr %2, i64 8
  %cmp3.i.i.i.i.i = icmp ult ptr %1, %add.ptr.i.i.i.i
  br i1 %cmp3.i.i.i.i.i, label %for.body.i.i.i.i.i, label %_ZNSt11_Deque_baseImSaImEE16_M_destroy_nodesEPPmS3_.exit.i.i.i.i

for.body.i.i.i.i.i:                               ; preds = %if.then.i.i.i.i, %for.body.i.i.i.i.i
  %__n.04.i.i.i.i.i = phi ptr [ %incdec.ptr.i.i.i.i.i, %for.body.i.i.i.i.i ], [ %1, %if.then.i.i.i.i ]
  %3 = load ptr, ptr %__n.04.i.i.i.i.i, align 8
  tail call void @_ZdlPv(ptr noundef %3) #17
  %incdec.ptr.i.i.i.i.i = getelementptr inbounds i8, ptr %__n.04.i.i.i.i.i, i64 8
  %cmp.i.i.i.i.i = icmp ult ptr %__n.04.i.i.i.i.i, %2
  br i1 %cmp.i.i.i.i.i, label %for.body.i.i.i.i.i, label %_ZNSt11_Deque_baseImSaImEE16_M_destroy_nodesEPPmS3_.exit.loopexit.i.i.i.i, !llvm.loop !5

_ZNSt11_Deque_baseImSaImEE16_M_destroy_nodesEPPmS3_.exit.loopexit.i.i.i.i: ; preds = %for.body.i.i.i.i.i
  %.pre.i.i.i.i = load ptr, ptr %repeat_stack.i, align 8
  br label %_ZNSt11_Deque_baseImSaImEE16_M_destroy_nodesEPPmS3_.exit.i.i.i.i

_ZNSt11_Deque_baseImSaImEE16_M_destroy_nodesEPPmS3_.exit.i.i.i.i: ; preds = %_ZNSt11_Deque_baseImSaImEE16_M_destroy_nodesEPPmS3_.exit.loopexit.i.i.i.i, %if.then.i.i.i.i
  %4 = phi ptr [ %.pre.i.i.i.i, %_ZNSt11_Deque_baseImSaImEE16_M_destroy_nodesEPPmS3_.exit.loopexit.i.i.i.i ], [ %0, %if.then.i.i.i.i ]
  tail call void @_ZdlPv(ptr noundef %4) #17
  br label %_ZNSt5stackImSt5dequeImSaImEEED2Ev.exit.i

_ZNSt5stackImSt5dequeImSaImEEED2Ev.exit.i:        ; preds = %_ZNSt11_Deque_baseImSaImEE16_M_destroy_nodesEPPmS3_.exit.i.i.i.i, %entry
  %nocase.i.i = getelementptr inbounds i8, ptr %this, i64 40
  %5 = load ptr, ptr %nocase.i.i, align 8
  %tobool.not.i.i.i.i.i.i = icmp eq ptr %5, null
  br i1 %tobool.not.i.i.i.i.i.i, label %_ZN3ue223ConstructLiteralVisitorD2Ev.exit, label %if.then.i.i.i.i.i.i

if.then.i.i.i.i.i.i:                              ; preds = %_ZNSt5stackImSt5dequeImSaImEEED2Ev.exit.i
  tail call void @_ZdlPv(ptr noundef nonnull %5) #17
  br label %_ZN3ue223ConstructLiteralVisitorD2Ev.exit

_ZN3ue223ConstructLiteralVisitorD2Ev.exit:        ; preds = %_ZNSt5stackImSt5dequeImSaImEEED2Ev.exit.i, %if.then.i.i.i.i.i.i
  %lit.i = getelementptr inbounds i8, ptr %this, i64 8
  tail call void @_ZNSt7__cxx1112basic_stringIcSt11char_traitsIcESaIcEED1Ev(ptr noundef nonnull align 8 dereferenceable(32) %lit.i) #16
  tail call void @_ZN3ue221ConstComponentVisitorD2Ev(ptr noundef nonnull align 8 dereferenceable(8) %this) #16
  tail call void @_ZdlPv(ptr noundef nonnull %this) #17
  ret void
}